target datalayout = "e-m:e-p270:32:32-p271:32:32-p272:64:64-i64:64-i128:128-f80:128-n8:16:32:64-S128"
target triple = "x86_64-pc-linux-gnu"

%struct.quic_stream_map_st = type { ptr, %struct.quic_stream_list_node_st, %struct.quic_stream_list_node_st, %struct.quic_stream_list_node_st, i64, i64, i64, i64, i64, ptr, ptr, ptr, ptr, ptr, i32 }
%struct.quic_stream_list_node_st = type { ptr, ptr }
%struct.quic_stream_st = type { %struct.quic_stream_list_node_st, %struct.quic_stream_list_node_st, %struct.quic_stream_list_node_st, ptr, i64, i64, i64, i64, i64, i64, i64, ptr, ptr, %struct.quic_txfc_st, %struct.quic_rxfc_st, i64 }
%struct.quic_txfc_st = type { ptr, i64, i64, i8 }
%struct.quic_rxfc_st = type { i64, i64, i64, i64, i64, i64, i64, %struct.OSSL_TIME, ptr, ptr, ptr, i8, i8, i8, i8 }
%struct.OSSL_TIME = type { i64 }

; Function Attrs: nounwind uwtable
define internal void @shutdown_flush_done(ptr noundef %0, ptr noundef %1) #0 {
  %3 = alloca ptr, align 8
  %4 = alloca ptr, align 8
  store ptr %0, ptr %3, align 8, !tbaa !3
  store ptr %1, ptr %4, align 8, !tbaa !37
  %5 = load ptr, ptr %4, align 8, !tbaa !37
  %6 = getelementptr inbounds nuw %struct.quic_stream_st, ptr %5, i32 0, i32 15
  %7 = load i64, ptr %6, align 8
  %8 = lshr i64 %7, 39
  %9 = and i64 %8, 1
  %10 = trunc i64 %9 to i32
  %11 = icmp ne i32 %10, 0
  br i1 %11, label %13, label %12

12:                                               ; preds = %2
  br label %23

13:                                               ; preds = %2
  %14 = load ptr, ptr %4, align 8, !tbaa !37
  %15 = getelementptr inbounds nuw %struct.quic_stream_st, ptr %14, i32 0, i32 15
  %16 = load i64, ptr %15, align 8
  %17 = and i64 %16, -549755813889
  %18 = or i64 %17, 0
  store i64 %18, ptr %15, align 8
  %19 = load ptr, ptr %3, align 8, !tbaa !3
  %20 = getelementptr inbounds nuw %struct.quic_stream_map_st, ptr %19, i32 0, i32 8
  %21 = load i64, ptr %20, align 8, !tbaa !31
  %22 = add i64 %21, -1
  store i64 %22, ptr %20, align 8, !tbaa !31
  br label %23

23:                                               ; preds = %13, %12
  ret void
}

; Function Attrs: nounwind uwtable
define i32 @ossl_quic_stream_map_ensure_send_part_id(ptr noundef %0, ptr noundef %1) #0 {
  %3 = alloca i32, align 4
  %4 = alloca ptr, align 8
  %5 = alloca ptr, align 8
  store ptr %0, ptr %4, align 8, !tbaa !3
  store ptr %1, ptr %5, align 8, !tbaa !37
  %6 = load ptr, ptr %5, align 8, !tbaa !37
  %7 = getelementptr inbounds nuw %struct.quic_stream_st, ptr %6, i32 0, i32 15
  %8 = load i64, ptr %7, align 8
  %9 = lshr i64 %8, 8
  %10 = and i64 %9, 255
  %11 = trunc i64 %10 to i32
  switch i32 %11, label %19 [
    i32 0, label %12
    i32 1, label %13
  ]

12:                                               ; preds = %2
  store i32 0, ptr %3, align 4
  br label %20

13:                                               ; preds = %2
  %14 = load ptr, ptr %5, align 8, !tbaa !37
  %15 = getelementptr inbounds nuw %struct.quic_stream_st, ptr %14, i32 0, i32 15
  %16 = load i64, ptr %15, align 8
  %17 = and i64 %16, -65281
  %18 = or i64 %17, 512
  store i64 %18, ptr %15, align 8
  store i32 1, ptr %3, align 4
  br label %20

19:                                               ; preds = %2
  store i32 1, ptr %3, align 4
  br label %20

20:                                               ; preds = %19, %13, %12
  %21 = load i32, ptr %3, align 4
  ret i32 %21
}

; Function Attrs: nounwind uwtable
define i32 @ossl_quic_stream_map_reset_stream_send_part(ptr noundef %0, ptr noundef %1, i64 noundef %2) #0 {
  %4 = alloca i32, align 4
  %5 = alloca ptr, align 8
  %6 = alloca ptr, align 8
  %7 = alloca i64, align 8
  store ptr %0, ptr %5, align 8, !tbaa !3
  store ptr %1, ptr %6, align 8, !tbaa !37
  store i64 %2, ptr %7, align 8, !tbaa !47
  %8 = load ptr, ptr %6, align 8, !tbaa !37
  %9 = getelementptr inbounds nuw %struct.quic_stream_st, ptr %8, i32 0, i32 15
  %10 = load i64, ptr %9, align 8
  %11 = lshr i64 %10, 8
  %12 = and i64 %11, 255
  %13 = trunc i64 %12 to i32
  switch i32 %13, label %14 [
    i32 0, label %15
    i32 4, label %15
    i32 1, label %16
    i32 2, label %23
    i32 3, label %29
    i32 5, label %52
    i32 6, label %52
  ]

14:                                               ; preds = %3
  br label %15

15:                                               ; preds = %3, %3, %14
  store i32 0, ptr %4, align 4
  br label %53

16:                                               ; preds = %3
  %17 = load ptr, ptr %5, align 8, !tbaa !3
  %18 = load ptr, ptr %6, align 8, !tbaa !37
  %19 = call i32 @ossl_quic_stream_map_ensure_send_part_id(ptr noundef %17, ptr noundef %18)
  %20 = icmp ne i32 %19, 0
  br i1 %20, label %22, label %21

21:                                               ; preds = %16
  store i32 0, ptr %4, align 4
  br label %53

22:                                               ; preds = %16
  br label %23

23:                                               ; preds = %3, %22
  %24 = load ptr, ptr %6, align 8, !tbaa !37
  %25 = getelementptr inbounds nuw %struct.quic_stream_st, ptr %24, i32 0, i32 13
  %26 = call i64 @ossl_quic_txfc_get_swm(ptr noundef %25)
  %27 = load ptr, ptr %6, align 8, !tbaa !37
  %28 = getelementptr inbounds nuw %struct.quic_stream_st, ptr %27, i32 0, i32 10
  store i64 %26, ptr %28, align 8, !tbaa !48
  br label %29

29:                                               ; preds = %3, %23
  %30 = load i64, ptr %7, align 8, !tbaa !47
  %31 = load ptr, ptr %6, align 8, !tbaa !37
  %32 = getelementptr inbounds nuw %struct.quic_stream_st, ptr %31, i32 0, i32 6
  store i64 %30, ptr %32, align 8, !tbaa !61
  %33 = load ptr, ptr %6, align 8, !tbaa !37
  %34 = getelementptr inbounds nuw %struct.quic_stream_st, ptr %33, i32 0, i32 15
  %35 = load i64, ptr %34, align 8
  %36 = and i64 %35, -34359738369
  %37 = or i64 %36, 34359738368
  store i64 %37, ptr %34, align 8
  %38 = load ptr, ptr %6, align 8, !tbaa !37
  %39 = getelementptr inbounds nuw %struct.quic_stream_st, ptr %38, i32 0, i32 15
  %40 = load i64, ptr %39, align 8
  %41 = and i64 %40, -65281
  %42 = or i64 %41, 1280
  store i64 %42, ptr %39, align 8
  %43 = load ptr, ptr %6, align 8, !tbaa !37
  %44 = getelementptr inbounds nuw %struct.quic_stream_st, ptr %43, i32 0, i32 11
  %45 = load ptr, ptr %44, align 8, !tbaa !52
  call void @ossl_quic_sstream_free(ptr noundef %45)
  %46 = load ptr, ptr %6, align 8, !tbaa !37
  %47 = getelementptr inbounds nuw %struct.quic_stream_st, ptr %46, i32 0, i32 11
  store ptr null, ptr %47, align 8, !tbaa !52
  %48 = load ptr, ptr %5, align 8, !tbaa !3
  %49 = load ptr, ptr %6, align 8, !tbaa !37
  call void @shutdown_flush_done(ptr noundef %48, ptr noundef %49)
  %50 = load ptr, ptr %5, align 8, !tbaa !3
  %51 = load ptr, ptr %6, align 8, !tbaa !37
  call void @ossl_quic_stream_map_update_state(ptr noundef %50, ptr noundef %51)
  store i32 1, ptr %4, align 4
  br label %53

52:                                               ; preds = %3, %3
  store i32 1, ptr %4, align 4
  br label %53

53:                                               ; preds = %52, %29, %21, %15
  %54 = load i32, ptr %4, align 4
  ret i32 %54
}