; Function Attrs: nounwind uwtable
define range(i32 0, 2) i32 @ossl_quic_stream_map_reset_stream_send_part(ptr noundef %0, ptr noundef %1, i64 noundef %2) local_unnamed_addr #0 {
  %4 = getelementptr inbounds nuw i8, ptr %1, i64 256
  %5 = load i64, ptr %4, align 8
  %6 = lshr i64 %5, 8
  %trunc = trunc i64 %6 to i8
  switch i8 %trunc, label %28 [
    i8 6, label %27
    i8 5, label %27
    i8 1, label %ossl_quic_stream_map_ensure_send_part_id.exit
    i8 2, label %9
    i8 3, label %13
  ]

ossl_quic_stream_map_ensure_send_part_id.exit:    ; preds = %3
  %7 = and i64 %5, -65281
  %8 = or disjoint i64 %7, 512
  store i64 %8, ptr %4, align 8
  br label %9

9:                                                ; preds = %ossl_quic_stream_map_ensure_send_part_id.exit, %3
  %10 = getelementptr inbounds nuw i8, ptr %1, i64 128
  %11 = tail call i64 @ossl_quic_txfc_get_swm(ptr noundef nonnull %10) #13
  %12 = getelementptr inbounds nuw i8, ptr %1, i64 104
  store i64 %11, ptr %12, align 8, !tbaa !35
  %.pre = load i64, ptr %4, align 8
  br label %13

13:                                               ; preds = %9, %3
  %14 = phi i64 [ %.pre, %9 ], [ %5, %3 ]
  %15 = getelementptr inbounds nuw i8, ptr %1, i64 72
  store i64 %2, ptr %15, align 8, !tbaa !47
  %16 = and i64 %14, -34359803649
  %17 = or disjoint i64 %16, 34359739648
  store i64 %17, ptr %4, align 8
  %18 = getelementptr inbounds nuw i8, ptr %1, i64 112
  %19 = load ptr, ptr %18, align 8, !tbaa !41
  tail call void @ossl_quic_sstream_free(ptr noundef %19) #13
  store ptr null, ptr %18, align 8, !tbaa !41
  %20 = load i64, ptr %4, align 8
  %21 = and i64 %20, 549755813888
  %.not.i = icmp eq i64 %21, 0
  br i1 %.not.i, label %shutdown_flush_done.exit, label %22

22:                                               ; preds = %13
  %23 = and i64 %20, -549755813889
  store i64 %23, ptr %4, align 8
  %24 = getelementptr inbounds nuw i8, ptr %0, i64 88
  %25 = load i64, ptr %24, align 8, !tbaa !44
  %26 = add i64 %25, -1
  store i64 %26, ptr %24, align 8, !tbaa !44
  br label %shutdown_flush_done.exit

shutdown_flush_done.exit:                         ; preds = %13, %22
  tail call void @ossl_quic_stream_map_update_state(ptr noundef %0, ptr noundef nonnull %1)
  br label %28

27:                                               ; preds = %3, %3
  br label %28

28:                                               ; preds = %3, %27, %shutdown_flush_done.exit
  %.0 = phi i32 [ 1, %shutdown_flush_done.exit ], [ 1, %27 ], [ 0, %3 ]
  ret i32 %.0
}